; Function Attrs: mustprogress nounwind uwtable
define dso_local void @_ZNK4llvm34DiagnosticInfoDebugMetadataVersion5printERNS_17DiagnosticPrinterE(ptr noundef nonnull readonly align 8 captures(none) dereferenceable(28) %0, ptr noundef nonnull align 8 dereferenceable(8) %1) unnamed_addr #1 align 2 {
  %3 = load ptr, ptr %1, align 8
  %4 = getelementptr inbounds nuw i8, ptr %3, i64 48
  %5 = load ptr, ptr %4, align 8
  %6 = tail call noundef nonnull align 8 dereferenceable(8) ptr %5(ptr noundef nonnull align 8 dereferenceable(8) %1, ptr noundef nonnull @.str.7) #16
  %7 = getelementptr inbounds nuw i8, ptr %0, i64 24
  %8 = load i32, ptr %7, align 8
  %9 = load ptr, ptr %6, align 8
  %10 = getelementptr inbounds nuw i8, ptr %9, i64 104
  %11 = load ptr, ptr %10, align 8
  %12 = tail call noundef nonnull align 8 dereferenceable(8) ptr %11(ptr noundef nonnull align 8 dereferenceable(8) %6, i32 noundef %8) #16
  %13 = load ptr, ptr %12, align 8
  %14 = getelementptr inbounds nuw i8, ptr %13, i64 48
  %15 = load ptr, ptr %14, align 8
  %16 = tail call noundef nonnull align 8 dereferenceable(8) ptr %15(ptr noundef nonnull align 8 dereferenceable(8) %12, ptr noundef nonnull @.str.8) #16
  %17 = getelementptr inbounds nuw i8, ptr %0, i64 16
  %18 = load ptr, ptr %17, align 8
  %19 = load ptr, ptr %16, align 8
  %20 = getelementptr inbounds nuw i8, ptr %19, i64 144
  %21 = load ptr, ptr %20, align 8
  %22 = tail call noundef nonnull align 8 dereferenceable(8) ptr %21(ptr noundef nonnull align 8 dereferenceable(8) %16, ptr noundef nonnull align 8 dereferenceable(857) %18) #16
  ret void
}